target datalayout = "e-m:e-p270:32:32-p271:32:32-p272:64:64-i64:64-i128:128-f80:128-n8:16:32:64-S128"
target triple = "x86_64-pc-linux-gnu"

%struct.ARKodeMemRec = type { ptr, double, ptr, i32, i32, double, double, ptr, i32, double, ptr, i32, i32, ptr, ptr, i32, ptr, ptr, i32, ptr, ptr, ptr, ptr, ptr, ptr, ptr, ptr, ptr, ptr, ptr, ptr, ptr, ptr, ptr, i32, ptr, ptr, i32, ptr, i32, ptr, ptr, ptr, ptr, ptr, ptr, ptr, ptr, ptr, ptr, ptr, ptr, ptr, ptr, ptr, ptr, ptr, ptr, ptr, ptr, ptr, ptr, ptr, ptr, ptr, ptr, i32, ptr, ptr, ptr, ptr, ptr, ptr, ptr, i32, ptr, ptr, ptr, i32, ptr, ptr, ptr, ptr, ptr, ptr, ptr, i32, i32, i32, i32, double, double, double, double, double, double, double, double, double, double, i32, ptr, i64, i32, i32, i32, i32, i64, i64, i32, i64, i64, i64, i64, i64, i64, i64, double, double, double, double, double, i32, double, double, i32, i32, i32, i32, i32, i32, i32, i32, ptr, i32, ptr, ptr, ptr, ptr, i32, i32, i32 }

; Function Attrs: nounwind uwtable
define i32 @arkRwtSetSV(ptr noundef %0, ptr noundef %1, ptr noundef %2) #0 {
  %4 = alloca i32, align 4
  %5 = alloca ptr, align 8
  %6 = alloca ptr, align 8
  %7 = alloca ptr, align 8
  store ptr %0, ptr %5, align 8, !tbaa !11
  store ptr %1, ptr %6, align 8, !tbaa !7
  store ptr %2, ptr %7, align 8, !tbaa !7
  %8 = load ptr, ptr %6, align 8, !tbaa !7
  %9 = load ptr, ptr %5, align 8, !tbaa !11
  %10 = getelementptr inbounds nuw %struct.ARKodeMemRec, ptr %9, i32 0, i32 79
  %11 = load ptr, ptr %10, align 8, !tbaa !85
  call void @N_VAbs(ptr noundef %8, ptr noundef %11)
  %12 = load ptr, ptr %5, align 8, !tbaa !11
  %13 = getelementptr inbounds nuw %struct.ARKodeMemRec, ptr %12, i32 0, i32 5
  %14 = load double, ptr %13, align 8, !tbaa !79
  %15 = load ptr, ptr %5, align 8, !tbaa !11
  %16 = getelementptr inbounds nuw %struct.ARKodeMemRec, ptr %15, i32 0, i32 79
  %17 = load ptr, ptr %16, align 8, !tbaa !85
  %18 = load ptr, ptr %5, align 8, !tbaa !11
  %19 = getelementptr inbounds nuw %struct.ARKodeMemRec, ptr %18, i32 0, i32 10
  %20 = load ptr, ptr %19, align 8, !tbaa !102
  %21 = load ptr, ptr %5, align 8, !tbaa !11
  %22 = getelementptr inbounds nuw %struct.ARKodeMemRec, ptr %21, i32 0, i32 79
  %23 = load ptr, ptr %22, align 8, !tbaa !85
  call void @N_VLinearSum(double noundef %14, ptr noundef %17, double noundef 1.000000e+00, ptr noundef %20, ptr noundef %23)
  %24 = load ptr, ptr %5, align 8, !tbaa !11
  %25 = getelementptr inbounds nuw %struct.ARKodeMemRec, ptr %24, i32 0, i32 11
  %26 = load i32, ptr %25, align 8, !tbaa !95
  %27 = icmp ne i32 %26, 0
  br i1 %27, label %28, label %36

28:                                               ; preds = %3
  %29 = load ptr, ptr %5, align 8, !tbaa !11
  %30 = getelementptr inbounds nuw %struct.ARKodeMemRec, ptr %29, i32 0, i32 79
  %31 = load ptr, ptr %30, align 8, !tbaa !85
  %32 = call double @N_VMin(ptr noundef %31)
  %33 = fcmp ole double %32, 0.000000e+00
  br i1 %33, label %34, label %35

34:                                               ; preds = %28
  store i32 -1, ptr %4, align 4
  br label %41

35:                                               ; preds = %28
  br label %36

36:                                               ; preds = %35, %3
  %37 = load ptr, ptr %5, align 8, !tbaa !11
  %38 = getelementptr inbounds nuw %struct.ARKodeMemRec, ptr %37, i32 0, i32 79
  %39 = load ptr, ptr %38, align 8, !tbaa !85
  %40 = load ptr, ptr %7, align 8, !tbaa !7
  call void @N_VInv(ptr noundef %39, ptr noundef %40)
  store i32 0, ptr %4, align 4
  br label %41

41:                                               ; preds = %36, %34
  %42 = load i32, ptr %4, align 4
  ret i32 %42
}

; Function Attrs: nounwind uwtable
define i32 @arkRwtSetSS(ptr noundef %0, ptr noundef %1, ptr noundef %2) #0 {
  %4 = alloca i32, align 4
  %5 = alloca ptr, align 8
  %6 = alloca ptr, align 8
  %7 = alloca ptr, align 8
  store ptr %0, ptr %5, align 8, !tbaa !11
  store ptr %1, ptr %6, align 8, !tbaa !7
  store ptr %2, ptr %7, align 8, !tbaa !7
  %8 = load ptr, ptr %6, align 8, !tbaa !7
  %9 = load ptr, ptr %5, align 8, !tbaa !11
  %10 = getelementptr inbounds nuw %struct.ARKodeMemRec, ptr %9, i32 0, i32 79
  %11 = load ptr, ptr %10, align 8, !tbaa !85
  call void @N_VAbs(ptr noundef %8, ptr noundef %11)
  %12 = load ptr, ptr %5, align 8, !tbaa !11
  %13 = getelementptr inbounds nuw %struct.ARKodeMemRec, ptr %12, i32 0, i32 5
  %14 = load double, ptr %13, align 8, !tbaa !79
  %15 = load ptr, ptr %5, align 8, !tbaa !11
  %16 = getelementptr inbounds nuw %struct.ARKodeMemRec, ptr %15, i32 0, i32 79
  %17 = load ptr, ptr %16, align 8, !tbaa !85
  %18 = load ptr, ptr %5, align 8, !tbaa !11
  %19 = getelementptr inbounds nuw %struct.ARKodeMemRec, ptr %18, i32 0, i32 79
  %20 = load ptr, ptr %19, align 8, !tbaa !85
  call void @N_VScale(double noundef %14, ptr noundef %17, ptr noundef %20)
  %21 = load ptr, ptr %5, align 8, !tbaa !11
  %22 = getelementptr inbounds nuw %struct.ARKodeMemRec, ptr %21, i32 0, i32 79
  %23 = load ptr, ptr %22, align 8, !tbaa !85
  %24 = load ptr, ptr %5, align 8, !tbaa !11
  %25 = getelementptr inbounds nuw %struct.ARKodeMemRec, ptr %24, i32 0, i32 9
  %26 = load double, ptr %25, align 8, !tbaa !96
  %27 = load ptr, ptr %5, align 8, !tbaa !11
  %28 = getelementptr inbounds nuw %struct.ARKodeMemRec, ptr %27, i32 0, i32 79
  %29 = load ptr, ptr %28, align 8, !tbaa !85
  call void @N_VAddConst(ptr noundef %23, double noundef %26, ptr noundef %29)
  %30 = load ptr, ptr %5, align 8, !tbaa !11
  %31 = getelementptr inbounds nuw %struct.ARKodeMemRec, ptr %30, i32 0, i32 11
  %32 = load i32, ptr %31, align 8, !tbaa !95
  %33 = icmp ne i32 %32, 0
  br i1 %33, label %34, label %42

34:                                               ; preds = %3
  %35 = load ptr, ptr %5, align 8, !tbaa !11
  %36 = getelementptr inbounds nuw %struct.ARKodeMemRec, ptr %35, i32 0, i32 79
  %37 = load ptr, ptr %36, align 8, !tbaa !85
  %38 = call double @N_VMin(ptr noundef %37)
  %39 = fcmp ole double %38, 0.000000e+00
  br i1 %39, label %40, label %41

40:                                               ; preds = %34
  store i32 -1, ptr %4, align 4
  br label %47

41:                                               ; preds = %34
  br label %42

42:                                               ; preds = %41, %3
  %43 = load ptr, ptr %5, align 8, !tbaa !11
  %44 = getelementptr inbounds nuw %struct.ARKodeMemRec, ptr %43, i32 0, i32 79
  %45 = load ptr, ptr %44, align 8, !tbaa !85
  %46 = load ptr, ptr %7, align 8, !tbaa !7
  call void @N_VInv(ptr noundef %45, ptr noundef %46)
  store i32 0, ptr %4, align 4
  br label %47

47:                                               ; preds = %42, %40
  %48 = load i32, ptr %4, align 4
  ret i32 %48
}

; Function Attrs: nounwind uwtable
define i32 @arkRwtSet(ptr noundef %0, ptr noundef %1, ptr noundef %2) #0 {
  %4 = alloca i32, align 4
  %5 = alloca ptr, align 8
  %6 = alloca ptr, align 8
  %7 = alloca ptr, align 8
  %8 = alloca ptr, align 8
  %9 = alloca ptr, align 8
  %10 = alloca i32, align 4
  %11 = alloca i32, align 4
  store ptr %0, ptr %5, align 8, !tbaa !7
  store ptr %1, ptr %6, align 8, !tbaa !7
  store ptr %2, ptr %7, align 8, !tbaa !3
  call void @llvm.lifetime.start.p0(i64 8, ptr %8) #10
  call void @llvm.lifetime.start.p0(i64 8, ptr %9) #10
  call void @llvm.lifetime.start.p0(i64 4, ptr %10) #10
  store i32 0, ptr %10, align 4, !tbaa !38
  %12 = load ptr, ptr %7, align 8, !tbaa !3
  store ptr %12, ptr %8, align 8, !tbaa !11
  %13 = load ptr, ptr %8, align 8, !tbaa !11
  %14 = getelementptr inbounds nuw %struct.ARKodeMemRec, ptr %13, i32 0, i32 74
  %15 = load i32, ptr %14, align 8, !tbaa !55
  %16 = icmp ne i32 %15, 0
  br i1 %16, label %17, label %18

17:                                               ; preds = %3
  store i32 0, ptr %4, align 4
  store i32 1, ptr %11, align 4
  br label %57

18:                                               ; preds = %3
  %19 = load ptr, ptr %8, align 8, !tbaa !11
  %20 = getelementptr inbounds nuw %struct.ARKodeMemRec, ptr %19, i32 0, i32 79
  %21 = load ptr, ptr %20, align 8, !tbaa !85
  store ptr %21, ptr %9, align 8, !tbaa !7
  %22 = load ptr, ptr %8, align 8, !tbaa !11
  %23 = getelementptr inbounds nuw %struct.ARKodeMemRec, ptr %22, i32 0, i32 70
  %24 = load ptr, ptr %23, align 8, !tbaa !100
  %25 = icmp ne ptr %24, null
  br i1 %25, label %26, label %38

26:                                               ; preds = %18
  %27 = load ptr, ptr %8, align 8, !tbaa !11
  %28 = getelementptr inbounds nuw %struct.ARKodeMemRec, ptr %27, i32 0, i32 70
  %29 = load ptr, ptr %28, align 8, !tbaa !100
  %30 = load ptr, ptr %8, align 8, !tbaa !11
  %31 = load ptr, ptr %5, align 8, !tbaa !7
  %32 = load ptr, ptr %9, align 8, !tbaa !7
  %33 = call i32 %29(ptr noundef %30, ptr noundef %31, ptr noundef %32)
  store i32 %33, ptr %10, align 4, !tbaa !38
  %34 = load i32, ptr %10, align 4, !tbaa !38
  %35 = icmp ne i32 %34, 0
  br i1 %35, label %36, label %37

36:                                               ; preds = %26
  store i32 -18, ptr %4, align 4
  store i32 1, ptr %11, align 4
  br label %57

37:                                               ; preds = %26
  br label %41

38:                                               ; preds = %18
  %39 = load ptr, ptr %5, align 8, !tbaa !7
  %40 = load ptr, ptr %9, align 8, !tbaa !7
  call void @N_VScale(double noundef 1.000000e+00, ptr noundef %39, ptr noundef %40)
  br label %41

41:                                               ; preds = %38, %37
  %42 = load ptr, ptr %8, align 8, !tbaa !11
  %43 = getelementptr inbounds nuw %struct.ARKodeMemRec, ptr %42, i32 0, i32 4
  %44 = load i32, ptr %43, align 4, !tbaa !97
  switch i32 %44, label %55 [
    i32 0, label %45
    i32 1, label %50
  ]

45:                                               ; preds = %41
  %46 = load ptr, ptr %8, align 8, !tbaa !11
  %47 = load ptr, ptr %9, align 8, !tbaa !7
  %48 = load ptr, ptr %6, align 8, !tbaa !7
  %49 = call i32 @arkRwtSetSS(ptr noundef %46, ptr noundef %47, ptr noundef %48)
  store i32 %49, ptr %10, align 4, !tbaa !38
  br label %55

50:                                               ; preds = %41
  %51 = load ptr, ptr %8, align 8, !tbaa !11
  %52 = load ptr, ptr %9, align 8, !tbaa !7
  %53 = load ptr, ptr %6, align 8, !tbaa !7
  %54 = call i32 @arkRwtSetSV(ptr noundef %51, ptr noundef %52, ptr noundef %53)
  store i32 %54, ptr %10, align 4, !tbaa !38
  br label %55

55:                                               ; preds = %41, %50, %45
  %56 = load i32, ptr %10, align 4, !tbaa !38
  store i32 %56, ptr %4, align 4
  store i32 1, ptr %11, align 4
  br label %57

57:                                               ; preds = %55, %36, %17
  call void @llvm.lifetime.end.p0(i64 4, ptr %10) #10
  call void @llvm.lifetime.end.p0(i64 8, ptr %9) #10
  call void @llvm.lifetime.end.p0(i64 8, ptr %8) #10
  %58 = load i32, ptr %4, align 4
  ret i32 %58
}