; Function Attrs: nounwind uwtable
define range(i32 -18, 1) i32 @arkRwtSet(ptr noundef %0, ptr noundef %1, ptr noundef %2) #0 {
  %4 = getelementptr inbounds nuw i8, ptr %2, i64 576
  %5 = load i32, ptr %4, align 8, !tbaa !55
  %.not = icmp eq i32 %5, 0
  br i1 %.not, label %6, label %arkRwtSetSS.exit

6:                                                ; preds = %3
  %7 = getelementptr inbounds nuw i8, ptr %2, i64 616
  %8 = load ptr, ptr %7, align 8, !tbaa !91
  %9 = getelementptr inbounds nuw i8, ptr %2, i64 544
  %10 = load ptr, ptr %9, align 8, !tbaa !102
  %.not22 = icmp eq ptr %10, null
  br i1 %.not22, label %13, label %11

11:                                               ; preds = %6
  %12 = tail call i32 %10(ptr noundef nonnull %2, ptr noundef %0, ptr noundef %8) #16
  %.not23 = icmp eq i32 %12, 0
  br i1 %.not23, label %14, label %arkRwtSetSS.exit

13:                                               ; preds = %6
  tail call void @N_VScale(double noundef 1.000000e+00, ptr noundef %0, ptr noundef %8) #16
  br label %14

14:                                               ; preds = %11, %13
  %15 = getelementptr inbounds nuw i8, ptr %2, i64 28
  %16 = load i32, ptr %15, align 4, !tbaa !99
  switch i32 %16, label %arkRwtSetSS.exit [
    i32 0, label %17
    i32 1, label %31
  ]

17:                                               ; preds = %14
  %18 = load ptr, ptr %7, align 8, !tbaa !91
  tail call void @N_VAbs(ptr noundef %8, ptr noundef %18) #16
  %19 = getelementptr inbounds nuw i8, ptr %2, i64 32
  %20 = load double, ptr %19, align 8, !tbaa !85
  %21 = load ptr, ptr %7, align 8, !tbaa !91
  tail call void @N_VScale(double noundef %20, ptr noundef %21, ptr noundef %21) #16
  %22 = load ptr, ptr %7, align 8, !tbaa !91
  %23 = getelementptr inbounds nuw i8, ptr %2, i64 64
  %24 = load double, ptr %23, align 8, !tbaa !98
  tail call void @N_VAddConst(ptr noundef %22, double noundef %24, ptr noundef %22) #16
  %25 = getelementptr inbounds nuw i8, ptr %2, i64 80
  %26 = load i32, ptr %25, align 8, !tbaa !97
  %.not.i = icmp eq i32 %26, 0
  br i1 %.not.i, label %arkRwtSetSS.exit.sink.split, label %27

27:                                               ; preds = %17
  %28 = load ptr, ptr %7, align 8, !tbaa !91
  %29 = tail call double @N_VMin(ptr noundef %28) #16
  %30 = fcmp ugt double %29, 0.000000e+00
  br i1 %30, label %arkRwtSetSS.exit.sink.split, label %arkRwtSetSS.exit

31:                                               ; preds = %14
  %32 = load ptr, ptr %7, align 8, !tbaa !91
  tail call void @N_VAbs(ptr noundef %8, ptr noundef %32) #16
  %33 = getelementptr inbounds nuw i8, ptr %2, i64 32
  %34 = load double, ptr %33, align 8, !tbaa !85
  %35 = load ptr, ptr %7, align 8, !tbaa !91
  %36 = getelementptr inbounds nuw i8, ptr %2, i64 72
  %37 = load ptr, ptr %36, align 8, !tbaa !103
  tail call void @N_VLinearSum(double noundef %34, ptr noundef %35, double noundef 1.000000e+00, ptr noundef %37, ptr noundef %35) #16
  %38 = getelementptr inbounds nuw i8, ptr %2, i64 80
  %39 = load i32, ptr %38, align 8, !tbaa !97
  %.not.i24 = icmp eq i32 %39, 0
  br i1 %.not.i24, label %arkRwtSetSS.exit.sink.split, label %40

40:                                               ; preds = %31
  %41 = load ptr, ptr %7, align 8, !tbaa !91
  %42 = tail call double @N_VMin(ptr noundef %41) #16
  %43 = fcmp ugt double %42, 0.000000e+00
  br i1 %43, label %arkRwtSetSS.exit.sink.split, label %arkRwtSetSS.exit

arkRwtSetSS.exit.sink.split:                      ; preds = %31, %40, %17, %27
  %44 = load ptr, ptr %7, align 8, !tbaa !91
  tail call void @N_VInv(ptr noundef %44, ptr noundef %1) #16
  br label %arkRwtSetSS.exit

arkRwtSetSS.exit:                                 ; preds = %arkRwtSetSS.exit.sink.split, %40, %27, %14, %11, %3
  %.019 = phi i32 [ 0, %3 ], [ -18, %11 ], [ 0, %14 ], [ -1, %27 ], [ -1, %40 ], [ 0, %arkRwtSetSS.exit.sink.split ]
  ret i32 %.019
}